; Function Attrs: mustprogress uwtable
define void @_ZNK7Imf_3_214TypedAttributeINS_15TileDescriptionEE12writeValueToERNS_7OStreamEi(ptr nocapture noundef nonnull readonly align 8 dereferenceable(24) %this, ptr noundef nonnull align 8 dereferenceable(40) %os, i32 %version) unnamed_addr #3 align 2 {
entry:
  %v.addr.i = alloca i8, align 1
  %b.i3 = alloca [4 x i8], align 1
  %b.i = alloca [4 x i8], align 1
  %_value = getelementptr inbounds i8, ptr %this, i64 8
  %0 = load i32, ptr %_value, align 8
  call void @llvm.lifetime.start.p0(i64 4, ptr nonnull %b.i)
  %conv.i = trunc i32 %0 to i8
  store i8 %conv.i, ptr %b.i, align 1
  %shr.i = lshr i32 %0, 8
  %conv1.i = trunc i32 %shr.i to i8
  %arrayidx2.i = getelementptr inbounds i8, ptr %b.i, i64 1
  store i8 %conv1.i, ptr %arrayidx2.i, align 1
  %shr3.i = lshr i32 %0, 16
  %conv4.i = trunc i32 %shr3.i to i8
  %arrayidx5.i = getelementptr inbounds i8, ptr %b.i, i64 2
  store i8 %conv4.i, ptr %arrayidx5.i, align 1
  %shr6.i = lshr i32 %0, 24
  %conv7.i = trunc i32 %shr6.i to i8
  %arrayidx8.i = getelementptr inbounds i8, ptr %b.i, i64 3
  store i8 %conv7.i, ptr %arrayidx8.i, align 1
  %vtable.i.i.i = load ptr, ptr %os, align 8
  %vfn.i.i.i = getelementptr inbounds i8, ptr %vtable.i.i.i, i64 16
  %1 = load ptr, ptr %vfn.i.i.i, align 8
  call void %1(ptr noundef nonnull align 8 dereferenceable(40) %os, ptr noundef nonnull %b.i, i32 noundef 4)
  call void @llvm.lifetime.end.p0(i64 4, ptr nonnull %b.i)
  %ySize = getelementptr inbounds i8, ptr %this, i64 12
  %2 = load i32, ptr %ySize, align 4
  call void @llvm.lifetime.start.p0(i64 4, ptr nonnull %b.i3)
  %conv.i4 = trunc i32 %2 to i8
  store i8 %conv.i4, ptr %b.i3, align 1
  %shr.i5 = lshr i32 %2, 8
  %conv1.i6 = trunc i32 %shr.i5 to i8
  %arrayidx2.i7 = getelementptr inbounds i8, ptr %b.i3, i64 1
  store i8 %conv1.i6, ptr %arrayidx2.i7, align 1
  %shr3.i8 = lshr i32 %2, 16
  %conv4.i9 = trunc i32 %shr3.i8 to i8
  %arrayidx5.i10 = getelementptr inbounds i8, ptr %b.i3, i64 2
  store i8 %conv4.i9, ptr %arrayidx5.i10, align 1
  %shr6.i11 = lshr i32 %2, 24
  %conv7.i12 = trunc i32 %shr6.i11 to i8
  %arrayidx8.i13 = getelementptr inbounds i8, ptr %b.i3, i64 3
  store i8 %conv7.i12, ptr %arrayidx8.i13, align 1
  %vtable.i.i.i14 = load ptr, ptr %os, align 8
  %vfn.i.i.i15 = getelementptr inbounds i8, ptr %vtable.i.i.i14, i64 16
  %3 = load ptr, ptr %vfn.i.i.i15, align 8
  call void %3(ptr noundef nonnull align 8 dereferenceable(40) %os, ptr noundef nonnull %b.i3, i32 noundef 4)
  call void @llvm.lifetime.end.p0(i64 4, ptr nonnull %b.i3)
  %mode = getelementptr inbounds i8, ptr %this, i64 16
  %4 = load i32, ptr %mode, align 8
  %roundingMode = getelementptr inbounds i8, ptr %this, i64 20
  %5 = load i32, ptr %roundingMode, align 4
  %shl = shl i32 %5, 4
  %or = or i32 %shl, %4
  %conv = trunc i32 %or to i8
  call void @llvm.lifetime.start.p0(i64 1, ptr nonnull %v.addr.i)
  store i8 %conv, ptr %v.addr.i, align 1
  %vtable.i.i.i16 = load ptr, ptr %os, align 8
  %vfn.i.i.i17 = getelementptr inbounds i8, ptr %vtable.i.i.i16, i64 16
  %6 = load ptr, ptr %vfn.i.i.i17, align 8
  call void %6(ptr noundef nonnull align 8 dereferenceable(40) %os, ptr noundef nonnull %v.addr.i, i32 noundef 1)
  call void @llvm.lifetime.end.p0(i64 1, ptr nonnull %v.addr.i)
  ret void
}